; Function Attrs: nounwind uwtable
define internal void @my_StartDoctypeDeclHandler(ptr noundef captures(none) %0, ptr noundef %1, ptr noundef %2, ptr noundef %3, i32 noundef %4) #0 {
  %6 = getelementptr i8, ptr %0, i64 72
  %.val = load ptr, ptr %6, align 8, !tbaa !36
  %7 = getelementptr i8, ptr %.val, i64 120
  %8 = load ptr, ptr %7, align 8, !tbaa !14
  %.not36 = icmp eq ptr %8, null
  br i1 %.not36, label %Py_DECREF.exit, label %9

9:                                                ; preds = %5
  %10 = tail call ptr @PyErr_Occurred() #8
  %.not21 = icmp eq ptr %10, null
  br i1 %.not21, label %11, label %Py_DECREF.exit

11:                                               ; preds = %9
  %12 = getelementptr inbounds nuw i8, ptr %0, i64 40
  %13 = load ptr, ptr %12, align 8, !tbaa !29
  %14 = icmp eq ptr %13, null
  br i1 %14, label %flush_character_buffer.exit.thread, label %15

15:                                               ; preds = %11
  %16 = getelementptr inbounds nuw i8, ptr %0, i64 52
  %17 = load i32, ptr %16, align 4, !tbaa !35
  %18 = icmp eq i32 %17, 0
  br i1 %18, label %flush_character_buffer.exit.thread, label %flush_character_buffer.exit

flush_character_buffer.exit:                      ; preds = %15
  %19 = tail call fastcc i32 @call_character_handler(ptr noundef nonnull %0, ptr noundef nonnull %13, i32 noundef %17)
  store i32 0, ptr %16, align 4, !tbaa !35
  %20 = icmp slt i32 %19, 0
  br i1 %20, label %Py_DECREF.exit, label %flush_character_buffer.exit.thread

flush_character_buffer.exit.thread:               ; preds = %11, %15, %flush_character_buffer.exit
  %21 = tail call fastcc ptr @string_intern(ptr noundef nonnull %0, ptr noundef %1)
  %22 = tail call fastcc ptr @string_intern(ptr noundef nonnull %0, ptr noundef %2)
  %23 = tail call fastcc ptr @string_intern(ptr noundef nonnull %0, ptr noundef %3)
  %24 = tail call ptr (ptr, ...) @Py_BuildValue(ptr noundef nonnull @.str.63, ptr noundef %21, ptr noundef %22, ptr noundef %23, i32 noundef %4) #8
  %.not22 = icmp eq ptr %24, null
  br i1 %.not22, label %25, label %48

25:                                               ; preds = %flush_character_buffer.exit.thread
  %26 = load ptr, ptr @handler_info, align 16, !tbaa !40
  %.not15.i.i = icmp eq ptr %26, null
  br i1 %.not15.i.i, label %flag_error.exit, label %.lr.ph.i.i

.lr.ph.i.i:                                       ; preds = %25
  %27 = getelementptr inbounds nuw i8, ptr %0, i64 16
  br label %.lr.ph.split.us.i.i

.lr.ph.split.us.i.i:                              ; preds = %Py_DECREF.exit.us.i.i, %.lr.ph.i.i
  %28 = phi ptr [ %44, %Py_DECREF.exit.us.i.i ], [ @handler_info, %.lr.ph.i.i ]
  %29 = phi i64 [ %43, %Py_DECREF.exit.us.i.i ], [ 0, %.lr.ph.i.i ]
  %.016.us.i.i = phi i32 [ %42, %Py_DECREF.exit.us.i.i ], [ 0, %.lr.ph.i.i ]
  %30 = load ptr, ptr %6, align 8, !tbaa !36
  %31 = getelementptr ptr, ptr %30, i64 %29
  %32 = load ptr, ptr %31, align 8, !tbaa !14
  %.not14.us.i.i = icmp eq ptr %32, null
  br i1 %.not14.us.i.i, label %Py_DECREF.exit.us.i.i, label %33

33:                                               ; preds = %.lr.ph.split.us.i.i
  store ptr null, ptr %31, align 8, !tbaa !14
  %34 = load i32, ptr %32, align 8, !tbaa !13
  %.not.i.us.i.i = icmp sgt i32 %34, -1
  br i1 %.not.i.us.i.i, label %35, label %Py_DECREF.exit.us.i.i

35:                                               ; preds = %33
  %36 = add nsw i32 %34, -1
  store i32 %36, ptr %32, align 8, !tbaa !13
  %37 = icmp eq i32 %36, 0
  br i1 %37, label %38, label %Py_DECREF.exit.us.i.i

38:                                               ; preds = %35
  tail call void @_Py_Dealloc(ptr noundef nonnull %32) #8
  br label %Py_DECREF.exit.us.i.i

Py_DECREF.exit.us.i.i:                            ; preds = %38, %35, %33, %.lr.ph.split.us.i.i
  %39 = getelementptr inbounds nuw i8, ptr %28, i64 8
  %40 = load ptr, ptr %39, align 8, !tbaa !56
  %41 = load ptr, ptr %27, align 8, !tbaa !39
  tail call void %40(ptr noundef %41, ptr noundef null) #8
  %42 = add i32 %.016.us.i.i, 1
  %43 = sext i32 %42 to i64
  %44 = getelementptr [64 x %struct.HandlerInfo], ptr @handler_info, i64 0, i64 %43
  %45 = load ptr, ptr %44, align 16, !tbaa !40
  %.not.us.i.i = icmp eq ptr %45, null
  br i1 %.not.us.i.i, label %flag_error.exit, label %.lr.ph.split.us.i.i, !llvm.loop !45

flag_error.exit:                                  ; preds = %Py_DECREF.exit.us.i.i, %25
  %46 = getelementptr inbounds nuw i8, ptr %0, i64 16
  %47 = load ptr, ptr %46, align 8, !tbaa !39
  tail call void @PyExpat_XML_SetExternalEntityRefHandler(ptr noundef %47, ptr noundef nonnull @error_external_entity_ref_handler) #8
  br label %Py_DECREF.exit

48:                                               ; preds = %flush_character_buffer.exit.thread
  %49 = getelementptr inbounds nuw i8, ptr %0, i64 32
  store i32 1, ptr %49, align 8, !tbaa !60
  %50 = load ptr, ptr %6, align 8, !tbaa !36
  %51 = getelementptr i8, ptr %50, i64 120
  %52 = load ptr, ptr %51, align 8, !tbaa !14
  %53 = tail call ptr @PyObject_Call(ptr noundef %52, ptr noundef nonnull %24, ptr noundef null) #8
  %54 = icmp eq ptr %53, null
  br i1 %54, label %55, label %call_with_frame.exit

55:                                               ; preds = %48
  tail call void @_PyTraceback_Add(ptr noundef nonnull @.str.64, ptr noundef nonnull @.str.43, i32 noundef 685) #8
  %56 = getelementptr inbounds nuw i8, ptr %0, i64 16
  %57 = load ptr, ptr %56, align 8, !tbaa !39
  %58 = tail call i32 @PyExpat_XML_StopParser(ptr noundef %57, i8 noundef zeroext 0) #8
  br label %call_with_frame.exit

call_with_frame.exit:                             ; preds = %48, %55
  store i32 0, ptr %49, align 8, !tbaa !60
  %59 = load i32, ptr %24, align 8, !tbaa !13
  %.not.i23 = icmp sgt i32 %59, -1
  br i1 %.not.i23, label %60, label %Py_DECREF.exit24

60:                                               ; preds = %call_with_frame.exit
  %61 = add nsw i32 %59, -1
  store i32 %61, ptr %24, align 8, !tbaa !13
  %62 = icmp eq i32 %61, 0
  br i1 %62, label %63, label %Py_DECREF.exit24

63:                                               ; preds = %60
  tail call void @_Py_Dealloc(ptr noundef nonnull %24) #8
  br label %Py_DECREF.exit24

Py_DECREF.exit24:                                 ; preds = %call_with_frame.exit, %60, %63
  br i1 %54, label %64, label %87

64:                                               ; preds = %Py_DECREF.exit24
  %65 = load ptr, ptr @handler_info, align 16, !tbaa !40
  %.not15.i.i26 = icmp eq ptr %65, null
  br i1 %.not15.i.i26, label %flag_error.exit34, label %.lr.ph.i.i27

.lr.ph.i.i27:                                     ; preds = %64
  %66 = getelementptr inbounds nuw i8, ptr %0, i64 16
  br label %.lr.ph.split.us.i.i28

.lr.ph.split.us.i.i28:                            ; preds = %Py_DECREF.exit.us.i.i32, %.lr.ph.i.i27
  %67 = phi ptr [ %83, %Py_DECREF.exit.us.i.i32 ], [ @handler_info, %.lr.ph.i.i27 ]
  %68 = phi i64 [ %82, %Py_DECREF.exit.us.i.i32 ], [ 0, %.lr.ph.i.i27 ]
  %.016.us.i.i29 = phi i32 [ %81, %Py_DECREF.exit.us.i.i32 ], [ 0, %.lr.ph.i.i27 ]
  %69 = load ptr, ptr %6, align 8, !tbaa !36
  %70 = getelementptr ptr, ptr %69, i64 %68
  %71 = load ptr, ptr %70, align 8, !tbaa !14
  %.not14.us.i.i30 = icmp eq ptr %71, null
  br i1 %.not14.us.i.i30, label %Py_DECREF.exit.us.i.i32, label %72

72:                                               ; preds = %.lr.ph.split.us.i.i28
  store ptr null, ptr %70, align 8, !tbaa !14
  %73 = load i32, ptr %71, align 8, !tbaa !13
  %.not.i.us.i.i31 = icmp sgt i32 %73, -1
  br i1 %.not.i.us.i.i31, label %74, label %Py_DECREF.exit.us.i.i32

74:                                               ; preds = %72
  %75 = add nsw i32 %73, -1
  store i32 %75, ptr %71, align 8, !tbaa !13
  %76 = icmp eq i32 %75, 0
  br i1 %76, label %77, label %Py_DECREF.exit.us.i.i32

77:                                               ; preds = %74
  tail call void @_Py_Dealloc(ptr noundef nonnull %71) #8
  br label %Py_DECREF.exit.us.i.i32

Py_DECREF.exit.us.i.i32:                          ; preds = %77, %74, %72, %.lr.ph.split.us.i.i28
  %78 = getelementptr inbounds nuw i8, ptr %67, i64 8
  %79 = load ptr, ptr %78, align 8, !tbaa !56
  %80 = load ptr, ptr %66, align 8, !tbaa !39
  tail call void %79(ptr noundef %80, ptr noundef null) #8
  %81 = add i32 %.016.us.i.i29, 1
  %82 = sext i32 %81 to i64
  %83 = getelementptr [64 x %struct.HandlerInfo], ptr @handler_info, i64 0, i64 %82
  %84 = load ptr, ptr %83, align 16, !tbaa !40
  %.not.us.i.i33 = icmp eq ptr %84, null
  br i1 %.not.us.i.i33, label %flag_error.exit34, label %.lr.ph.split.us.i.i28, !llvm.loop !45

flag_error.exit34:                                ; preds = %Py_DECREF.exit.us.i.i32, %64
  %85 = getelementptr inbounds nuw i8, ptr %0, i64 16
  %86 = load ptr, ptr %85, align 8, !tbaa !39
  tail call void @PyExpat_XML_SetExternalEntityRefHandler(ptr noundef %86, ptr noundef nonnull @error_external_entity_ref_handler) #8
  br label %Py_DECREF.exit

87:                                               ; preds = %Py_DECREF.exit24
  %88 = load i32, ptr %53, align 8, !tbaa !13
  %.not.i = icmp sgt i32 %88, -1
  br i1 %.not.i, label %89, label %Py_DECREF.exit

89:                                               ; preds = %87
  %90 = add nsw i32 %88, -1
  store i32 %90, ptr %53, align 8, !tbaa !13
  %91 = icmp eq i32 %90, 0
  br i1 %91, label %92, label %Py_DECREF.exit

92:                                               ; preds = %89
  tail call void @_Py_Dealloc(ptr noundef nonnull %53) #8
  br label %Py_DECREF.exit

Py_DECREF.exit:                                   ; preds = %92, %89, %87, %5, %flush_character_buffer.exit, %9, %flag_error.exit34, %flag_error.exit
  ret void
}